target datalayout = "e-m:e-p270:32:32-p271:32:32-p272:64:64-i64:64-i128:128-f80:128-n8:16:32:64-S128"
target triple = "x86_64-pc-linux-gnu"

%struct.strvec = type { ptr, i64, i64 }
%struct.strbuf = type { i64, i64, ptr }
%struct.stash_info = type { %struct.object_id, %struct.object_id, %struct.object_id, %struct.object_id, %struct.object_id, %struct.object_id, %struct.object_id, %struct.object_id, %struct.strbuf, i32, i32 }
%struct.object_id = type { [32 x i8], i32 }
%struct.repository = type { ptr, ptr, ptr, ptr, ptr, %struct.strmap, %struct.strmap, %struct.repo_path_cache, ptr, ptr, ptr, ptr, %struct.repo_settings, ptr, ptr, ptr, ptr, ptr, ptr, i32, i32, i32, ptr, ptr, i32, i32, i8 }
%struct.strmap = type { %struct.hashmap, ptr, i8 }
%struct.hashmap = type { ptr, ptr, ptr, i32, i32, i32, i32, i8 }
%struct.repo_path_cache = type { ptr, ptr, ptr, ptr, ptr, ptr, ptr }
%struct.repo_settings = type { i32, i32, i32, i32, i32, i32, i32, i32, i32, i32, i32, i32, ptr, i32, i32, i32, i32, i32, i32, i32, i64, i64, i64 }
%struct.child_process = type { %struct.strvec, %struct.strvec, i32, i32, i64, ptr, ptr, i32, i32, i32, ptr, i16, ptr }
%struct.index_state = type { ptr, i32, i32, i32, i32, ptr, ptr, ptr, %struct.cache_time, i8, i32, %struct.hashmap, %struct.hashmap, %struct.object_id, ptr, ptr, ptr, ptr, ptr, ptr, ptr }
%struct.cache_time = type { i32, i32 }

@the_repository = external global ptr, align 8
@stash_index_path = internal global %struct.strbuf { i64 0, i64 0, ptr @strbuf_slopbuf }, align 8
@stderr = external global ptr, align 8
@.str.25 = private unnamed_addr constant [1 x i8] zeroinitializer, align 1
@git_gettext_enabled = external global i32, align 4
@.str.46 = private unnamed_addr constant [10 x i8] c"diff-tree\00", align 1
@.str.57 = private unnamed_addr constant [10 x i8] c"read-tree\00", align 1
@.str.58 = private unnamed_addr constant [18 x i8] c"GIT_INDEX_FILE=%s\00", align 1
@.str.77 = private unnamed_addr constant [3 x i8] c"--\00", align 1
@.str.94 = private unnamed_addr constant [5 x i8] c"HEAD\00", align 1
@.str.115 = private unnamed_addr constant [15 x i8] c"GIT_INDEX_FILE\00", align 1
@.str.116 = private unnamed_addr constant [3 x i8] c"-p\00", align 1
@.str.117 = private unnamed_addr constant [4 x i8] c"-U1\00", align 1
@.str.118 = private unnamed_addr constant [20 x i8] c"No changes selected\00", align 1

; Function Attrs: inlinehint nounwind uwtable
define internal ptr @_(ptr noundef %0) #5 {
  %2 = alloca ptr, align 8
  %3 = alloca ptr, align 8
  store ptr %0, ptr %3, align 8, !tbaa !11
  %4 = load ptr, ptr %3, align 8, !tbaa !11
  %5 = load i8, ptr %4, align 1, !tbaa !58
  %6 = icmp ne i8 %5, 0
  br i1 %6, label %8, label %7

7:                                                ; preds = %1
  store ptr @.str.25, ptr %2, align 8
  br label %16

8:                                                ; preds = %1
  %9 = load i32, ptr @git_gettext_enabled, align 4, !tbaa !4
  %10 = icmp ne i32 %9, 0
  br i1 %10, label %13, label %11

11:                                               ; preds = %8
  %12 = load ptr, ptr %3, align 8, !tbaa !11
  store ptr %12, ptr %2, align 8
  br label %16

13:                                               ; preds = %8
  %14 = load ptr, ptr %3, align 8, !tbaa !11
  %15 = call ptr @dcgettext(ptr noundef null, ptr noundef %14, i32 noundef 5) #9
  store ptr %15, ptr %2, align 8
  br label %16

16:                                               ; preds = %13, %11, %7
  %17 = load ptr, ptr %2, align 8
  ret ptr %17
}

; Function Attrs: inlinehint nounwind uwtable
define internal ptr @xstrdup_or_null(ptr noundef %0) #5 {
  %2 = alloca ptr, align 8
  store ptr %0, ptr %2, align 8, !tbaa !11
  %3 = load ptr, ptr %2, align 8, !tbaa !11
  %4 = icmp ne ptr %3, null
  br i1 %4, label %5, label %8

5:                                                ; preds = %1
  %6 = load ptr, ptr %2, align 8, !tbaa !11
  %7 = call ptr @xstrdup(ptr noundef %6)
  br label %9

8:                                                ; preds = %1
  br label %9

9:                                                ; preds = %8, %5
  %10 = phi ptr [ %7, %5 ], [ null, %8 ]
  ret ptr %10
}

; Function Attrs: nounwind uwtable
define internal i32 @stash_patch(ptr noundef %0, ptr noundef %1, ptr noundef %2, i32 noundef %3) #0 {
  %5 = alloca ptr, align 8
  %6 = alloca ptr, align 8
  %7 = alloca ptr, align 8
  %8 = alloca i32, align 4
  %9 = alloca i32, align 4
  %10 = alloca %struct.child_process, align 8
  %11 = alloca %struct.child_process, align 8
  %12 = alloca %struct.index_state, align 8
  %13 = alloca ptr, align 8
  %14 = alloca ptr, align 8
  store ptr %0, ptr %5, align 8, !tbaa !109
  store ptr %1, ptr %6, align 8, !tbaa !189
  store ptr %2, ptr %7, align 8, !tbaa !127
  store i32 %3, ptr %8, align 4, !tbaa !4
  call void @llvm.lifetime.start.p0(i64 4, ptr %9) #9
  store i32 0, ptr %9, align 4, !tbaa !4
  call void @llvm.lifetime.start.p0(i64 120, ptr %10) #9
  call void @llvm.memcpy.p0.p0.i64(ptr align 8 %10, ptr align 8 @__const.stash_patch.cp_read_tree, i64 120, i1 false)
  call void @llvm.lifetime.start.p0(i64 120, ptr %11) #9
  call void @llvm.memcpy.p0.p0.i64(ptr align 8 %11, ptr align 8 @__const.stash_patch.cp_diff_tree, i64 120, i1 false)
  call void @llvm.lifetime.start.p0(i64 256, ptr %12) #9
  call void @llvm.memset.p0.i64(ptr align 8 %12, i8 0, i64 256, i1 false)
  %15 = getelementptr inbounds nuw %struct.index_state, ptr %12, i32 0, i32 19
  %16 = load ptr, ptr @the_repository, align 8, !tbaa !13
  store ptr %16, ptr %15, align 8, !tbaa !197
  call void @llvm.lifetime.start.p0(i64 8, ptr %13) #9
  store ptr null, ptr %13, align 8, !tbaa !11
  call void @llvm.lifetime.start.p0(i64 8, ptr %14) #9
  %17 = load ptr, ptr getelementptr inbounds nuw (%struct.strbuf, ptr @stash_index_path, i32 0, i32 2), align 8, !tbaa !112
  %18 = call i32 @remove_path(ptr noundef %17)
  %19 = getelementptr inbounds nuw %struct.child_process, ptr %10, i32 0, i32 11
  %20 = load i16, ptr %19, align 8
  %21 = and i16 %20, -9
  %22 = or i16 %21, 8
  store i16 %22, ptr %19, align 8
  %23 = getelementptr inbounds nuw %struct.child_process, ptr %10, i32 0, i32 0
  call void (ptr, ...) @strvec_pushl(ptr noundef %23, ptr noundef @.str.57, ptr noundef @.str.94, ptr noundef null)
  %24 = getelementptr inbounds nuw %struct.child_process, ptr %10, i32 0, i32 1
  %25 = load ptr, ptr getelementptr inbounds nuw (%struct.strbuf, ptr @stash_index_path, i32 0, i32 2), align 8, !tbaa !112
  %26 = call ptr (ptr, ptr, ...) @strvec_pushf(ptr noundef %24, ptr noundef @.str.58, ptr noundef %25)
  %27 = call i32 @run_command(ptr noundef %10)
  %28 = icmp ne i32 %27, 0
  br i1 %28, label %29, label %30

29:                                               ; preds = %4
  store i32 -1, ptr %9, align 4, !tbaa !4
  br label %103

30:                                               ; preds = %4
  %31 = load ptr, ptr @the_repository, align 8, !tbaa !13
  %32 = getelementptr inbounds nuw %struct.repository, ptr %31, i32 0, i32 9
  %33 = load ptr, ptr %32, align 8, !tbaa !198
  store ptr %33, ptr %14, align 8, !tbaa !11
  %34 = load ptr, ptr getelementptr inbounds nuw (%struct.strbuf, ptr @stash_index_path, i32 0, i32 2), align 8, !tbaa !112
  %35 = load ptr, ptr @the_repository, align 8, !tbaa !13
  %36 = getelementptr inbounds nuw %struct.repository, ptr %35, i32 0, i32 9
  store ptr %34, ptr %36, align 8, !tbaa !198
  %37 = call ptr @getenv(ptr noundef @.str.115) #9
  %38 = call ptr @xstrdup_or_null(ptr noundef %37)
  store ptr %38, ptr %13, align 8, !tbaa !11
  %39 = load ptr, ptr @the_repository, align 8, !tbaa !13
  %40 = getelementptr inbounds nuw %struct.repository, ptr %39, i32 0, i32 9
  %41 = load ptr, ptr %40, align 8, !tbaa !198
  %42 = call i32 @setenv(ptr noundef @.str.115, ptr noundef %41, i32 noundef 1) #9
  %43 = load ptr, ptr @the_repository, align 8, !tbaa !13
  %44 = load ptr, ptr %6, align 8, !tbaa !189
  %45 = call i32 @run_add_p(ptr noundef %43, i32 noundef 1, ptr noundef null, ptr noundef %44)
  %46 = icmp ne i32 %45, 0
  %47 = xor i1 %46, true
  %48 = xor i1 %47, true
  %49 = zext i1 %48 to i32
  store i32 %49, ptr %9, align 4, !tbaa !4
  %50 = load ptr, ptr %14, align 8, !tbaa !11
  %51 = load ptr, ptr @the_repository, align 8, !tbaa !13
  %52 = getelementptr inbounds nuw %struct.repository, ptr %51, i32 0, i32 9
  store ptr %50, ptr %52, align 8, !tbaa !198
  %53 = load ptr, ptr %13, align 8, !tbaa !11
  %54 = icmp ne ptr %53, null
  br i1 %54, label %55, label %63

55:                                               ; preds = %30
  %56 = load ptr, ptr %13, align 8, !tbaa !11
  %57 = load i8, ptr %56, align 1, !tbaa !58
  %58 = sext i8 %57 to i32
  %59 = icmp ne i32 %58, 0
  br i1 %59, label %60, label %63

60:                                               ; preds = %55
  %61 = load ptr, ptr %13, align 8, !tbaa !11
  %62 = call i32 @setenv(ptr noundef @.str.115, ptr noundef %61, i32 noundef 1) #9
  br label %65

63:                                               ; preds = %55, %30
  %64 = call i32 @unsetenv(ptr noundef @.str.115) #9
  br label %65

65:                                               ; preds = %63, %60
  br label %66

66:                                               ; preds = %65
  %67 = load ptr, ptr %13, align 8, !tbaa !11
  call void @free(ptr noundef %67) #9
  store ptr null, ptr %13, align 8, !tbaa !11
  br label %68

68:                                               ; preds = %66
  br label %69

69:                                               ; preds = %68
  %70 = load ptr, ptr %5, align 8, !tbaa !109
  %71 = getelementptr inbounds nuw %struct.stash_info, ptr %70, i32 0, i32 4
  %72 = load ptr, ptr getelementptr inbounds nuw (%struct.strbuf, ptr @stash_index_path, i32 0, i32 2), align 8, !tbaa !112
  %73 = call i32 @write_index_as_tree(ptr noundef %71, ptr noundef %12, ptr noundef %72, i32 noundef 0, ptr noundef null)
  %74 = icmp ne i32 %73, 0
  br i1 %74, label %75, label %76

75:                                               ; preds = %69
  store i32 -1, ptr %9, align 4, !tbaa !4
  br label %103

76:                                               ; preds = %69
  %77 = getelementptr inbounds nuw %struct.child_process, ptr %11, i32 0, i32 11
  %78 = load i16, ptr %77, align 8
  %79 = and i16 %78, -9
  %80 = or i16 %79, 8
  store i16 %80, ptr %77, align 8
  %81 = getelementptr inbounds nuw %struct.child_process, ptr %11, i32 0, i32 0
  %82 = load ptr, ptr %5, align 8, !tbaa !109
  %83 = getelementptr inbounds nuw %struct.stash_info, ptr %82, i32 0, i32 4
  %84 = call ptr @oid_to_hex(ptr noundef %83)
  call void (ptr, ...) @strvec_pushl(ptr noundef %81, ptr noundef @.str.46, ptr noundef @.str.116, ptr noundef @.str.117, ptr noundef @.str.94, ptr noundef %84, ptr noundef @.str.77, ptr noundef null)
  %85 = load ptr, ptr %7, align 8, !tbaa !127
  %86 = call i32 @pipe_command(ptr noundef %11, ptr noundef null, i64 noundef 0, ptr noundef %85, i64 noundef 0, ptr noundef null, i64 noundef 0)
  %87 = icmp ne i32 %86, 0
  br i1 %87, label %88, label %89

88:                                               ; preds = %76
  store i32 -1, ptr %9, align 4, !tbaa !4
  br label %103

89:                                               ; preds = %76
  %90 = load ptr, ptr %7, align 8, !tbaa !127
  %91 = getelementptr inbounds nuw %struct.strbuf, ptr %90, i32 0, i32 1
  %92 = load i64, ptr %91, align 8, !tbaa !114
  %93 = icmp ne i64 %92, 0
  br i1 %93, label %102, label %94

94:                                               ; preds = %89
  %95 = load i32, ptr %8, align 4, !tbaa !4
  %96 = icmp ne i32 %95, 0
  br i1 %96, label %101, label %97

97:                                               ; preds = %94
  %98 = load ptr, ptr @stderr, align 8, !tbaa !52
  %99 = call ptr @_(ptr noundef @.str.118)
  %100 = call i32 (ptr, ptr, ...) @fprintf_ln(ptr noundef %98, ptr noundef %99)
  br label %101

101:                                              ; preds = %97, %94
  store i32 1, ptr %9, align 4, !tbaa !4
  br label %102

102:                                              ; preds = %101, %89
  br label %103

103:                                              ; preds = %102, %88, %75, %29
  call void @release_index(ptr noundef %12)
  %104 = load ptr, ptr getelementptr inbounds nuw (%struct.strbuf, ptr @stash_index_path, i32 0, i32 2), align 8, !tbaa !112
  %105 = call i32 @remove_path(ptr noundef %104)
  %106 = load i32, ptr %9, align 4, !tbaa !4
  call void @llvm.lifetime.end.p0(i64 8, ptr %14) #9
  call void @llvm.lifetime.end.p0(i64 8, ptr %13) #9
  call void @llvm.lifetime.end.p0(i64 256, ptr %12) #9
  call void @llvm.lifetime.end.p0(i64 120, ptr %11) #9
  call void @llvm.lifetime.end.p0(i64 120, ptr %10) #9
  call void @llvm.lifetime.end.p0(i64 4, ptr %9) #9
  ret i32 %106
}