; Function Attrs: nounwind uwtable
define internal fastcc range(i32 -1, 2) i32 @stash_patch(ptr noundef nonnull %0, ptr noundef nonnull %1, ptr noundef %2, i32 noundef %3) unnamed_addr #0 {
  %5 = alloca %struct.child_process, align 8
  %6 = alloca %struct.child_process, align 8
  %7 = alloca %struct.index_state, align 8
  call void @llvm.lifetime.start.p0(i64 120, ptr nonnull %5) #15
  call void @llvm.memcpy.p0.p0.i64(ptr noundef nonnull align 8 dereferenceable(120) %5, ptr noundef nonnull align 8 dereferenceable(120) @__const.do_push_stash.cp.159, i64 120, i1 false)
  call void @llvm.lifetime.start.p0(i64 120, ptr nonnull %6) #15
  call void @llvm.memcpy.p0.p0.i64(ptr noundef nonnull align 8 dereferenceable(120) %6, ptr noundef nonnull align 8 dereferenceable(120) @__const.do_push_stash.cp.159, i64 120, i1 false)
  call void @llvm.lifetime.start.p0(i64 256, ptr nonnull %7) #15
  call void @llvm.memset.p0.i64(ptr noundef nonnull align 8 dereferenceable(256) %7, i8 0, i64 256, i1 false)
  %8 = getelementptr inbounds nuw i8, ptr %7, i64 240
  %9 = load ptr, ptr @the_repository, align 8, !tbaa !18
  store ptr %9, ptr %8, align 8, !tbaa !186
  %10 = load ptr, ptr getelementptr inbounds nuw (i8, ptr @stash_index_path, i64 16), align 8, !tbaa !131
  %11 = tail call i32 @remove_path(ptr noundef %10) #15
  %12 = getelementptr inbounds nuw i8, ptr %5, i64 104
  store i16 8, ptr %12, align 8
  call void (ptr, ...) @strvec_pushl(ptr noundef nonnull %5, ptr noundef nonnull @.str.57, ptr noundef nonnull @.str.94, ptr noundef null) #15
  %13 = getelementptr inbounds nuw i8, ptr %5, i64 24
  %14 = load ptr, ptr getelementptr inbounds nuw (i8, ptr @stash_index_path, i64 16), align 8, !tbaa !131
  %15 = call ptr (ptr, ptr, ...) @strvec_pushf(ptr noundef nonnull %13, ptr noundef nonnull @.str.58, ptr noundef %14) #15
  %16 = call i32 @run_command(ptr noundef nonnull %5) #15
  %.not = icmp eq i32 %16, 0
  br i1 %.not, label %17, label %58

17:                                               ; preds = %4
  %18 = load ptr, ptr @the_repository, align 8, !tbaa !18
  %19 = getelementptr inbounds nuw i8, ptr %18, i64 232
  %20 = load ptr, ptr %19, align 8, !tbaa !187
  %21 = load ptr, ptr getelementptr inbounds nuw (i8, ptr @stash_index_path, i64 16), align 8, !tbaa !131
  store ptr %21, ptr %19, align 8, !tbaa !187
  %22 = call ptr @getenv(ptr noundef nonnull @.str.115) #15
  %.not.i = icmp eq ptr %22, null
  br i1 %.not.i, label %xstrdup_or_null.exit, label %23

23:                                               ; preds = %17
  %24 = call ptr @xstrdup(ptr noundef nonnull %22) #15
  %.pre = load ptr, ptr @the_repository, align 8, !tbaa !18
  %.phi.trans.insert = getelementptr inbounds nuw i8, ptr %.pre, i64 232
  %.pre18 = load ptr, ptr %.phi.trans.insert, align 8, !tbaa !187
  br label %xstrdup_or_null.exit

xstrdup_or_null.exit:                             ; preds = %17, %23
  %25 = phi ptr [ %.pre18, %23 ], [ %21, %17 ]
  %26 = phi ptr [ %24, %23 ], [ null, %17 ]
  %27 = call i32 @setenv(ptr noundef nonnull @.str.115, ptr noundef %25, i32 noundef 1) #15
  %28 = load ptr, ptr @the_repository, align 8, !tbaa !18
  %29 = call i32 @run_add_p(ptr noundef %28, i32 noundef 1, ptr noundef null, ptr noundef nonnull %1) #15
  %30 = icmp ne i32 %29, 0
  %31 = zext i1 %30 to i32
  %32 = load ptr, ptr @the_repository, align 8, !tbaa !18
  %33 = getelementptr inbounds nuw i8, ptr %32, i64 232
  store ptr %20, ptr %33, align 8, !tbaa !187
  %.not12 = icmp eq ptr %26, null
  br i1 %.not12, label %38, label %34

34:                                               ; preds = %xstrdup_or_null.exit
  %35 = load i8, ptr %26, align 1, !tbaa !55
  %.not13 = icmp eq i8 %35, 0
  br i1 %.not13, label %38, label %36

36:                                               ; preds = %34
  %37 = call i32 @setenv(ptr noundef nonnull @.str.115, ptr noundef nonnull %26, i32 noundef 1) #15
  br label %40

38:                                               ; preds = %34, %xstrdup_or_null.exit
  %39 = call i32 @unsetenv(ptr noundef nonnull @.str.115) #15
  br label %40

40:                                               ; preds = %36, %38
  call void @free(ptr noundef %26) #15
  %41 = getelementptr inbounds nuw i8, ptr %0, i64 144
  %42 = load ptr, ptr getelementptr inbounds nuw (i8, ptr @stash_index_path, i64 16), align 8, !tbaa !131
  %43 = call i32 @write_index_as_tree(ptr noundef nonnull %41, ptr noundef nonnull %7, ptr noundef %42, i32 noundef 0, ptr noundef null) #15
  %.not14 = icmp eq i32 %43, 0
  br i1 %.not14, label %44, label %58

44:                                               ; preds = %40
  %45 = getelementptr inbounds nuw i8, ptr %6, i64 104
  store i16 8, ptr %45, align 8
  %46 = call ptr @oid_to_hex(ptr noundef nonnull %41) #15
  call void (ptr, ...) @strvec_pushl(ptr noundef nonnull %6, ptr noundef nonnull @.str.46, ptr noundef nonnull @.str.116, ptr noundef nonnull @.str.117, ptr noundef nonnull @.str.94, ptr noundef %46, ptr noundef nonnull @.str.77, ptr noundef null) #15
  %47 = call i32 @pipe_command(ptr noundef nonnull %6, ptr noundef null, i64 noundef 0, ptr noundef %2, i64 noundef 0, ptr noundef null, i64 noundef 0) #15
  %.not15 = icmp eq i32 %47, 0
  br i1 %.not15, label %48, label %58

48:                                               ; preds = %44
  %49 = getelementptr inbounds nuw i8, ptr %2, i64 8
  %50 = load i64, ptr %49, align 8, !tbaa !132
  %.not16 = icmp eq i64 %50, 0
  br i1 %.not16, label %51, label %58

51:                                               ; preds = %48
  %.not17 = icmp eq i32 %3, 0
  br i1 %.not17, label %52, label %58

52:                                               ; preds = %51
  %53 = load ptr, ptr @stderr, align 8, !tbaa !52
  %54 = load i32, ptr @git_gettext_enabled, align 4, !tbaa !42
  %.not4.i = icmp eq i32 %54, 0
  br i1 %.not4.i, label %_.exit, label %55

55:                                               ; preds = %52
  %56 = call ptr @dcgettext(ptr noundef null, ptr noundef nonnull @.str.118, i32 noundef 5) #15
  br label %_.exit

_.exit:                                           ; preds = %52, %55
  %.0.i = phi ptr [ %56, %55 ], [ @.str.118, %52 ]
  %57 = call i32 (ptr, ptr, ...) @fprintf_ln(ptr noundef %53, ptr noundef %.0.i) #15
  br label %58

58:                                               ; preds = %51, %_.exit, %44, %40, %4, %48
  %.0 = phi i32 [ %31, %48 ], [ -1, %4 ], [ -1, %40 ], [ -1, %44 ], [ 1, %_.exit ], [ 1, %51 ]
  call void @release_index(ptr noundef nonnull %7) #15
  %59 = load ptr, ptr getelementptr inbounds nuw (i8, ptr @stash_index_path, i64 16), align 8, !tbaa !131
  %60 = call i32 @remove_path(ptr noundef %59) #15
  call void @llvm.lifetime.end.p0(i64 256, ptr nonnull %7) #15
  call void @llvm.lifetime.end.p0(i64 120, ptr nonnull %6) #15
  call void @llvm.lifetime.end.p0(i64 120, ptr nonnull %5) #15
  ret i32 %.0
}